target datalayout = "e-m:e-p270:32:32-p271:32:32-p272:64:64-i64:64-i128:128-f80:128-n8:16:32:64-S128"
target triple = "x86_64-pc-linux-gnu"

%struct.mspack_system = type { ptr, ptr, ptr, ptr, ptr, ptr, ptr, ptr, ptr, ptr, ptr }
%struct.mszipd_stream = type { ptr, ptr, ptr, i32, ptr, i32, i32, i32, ptr, ptr, ptr, ptr, ptr, i8, i32, i32, i32, [288 x i8], [32 x i8], [1152 x i16], [128 x i16], [32768 x i8] }

; Function Attrs: nounwind uwtable
define ptr @mszipd_init(ptr noundef %0, ptr noundef %1, ptr noundef %2, i32 noundef %3, i32 noundef %4) #0 {
  %6 = alloca ptr, align 8
  %7 = alloca ptr, align 8
  %8 = alloca ptr, align 8
  %9 = alloca ptr, align 8
  %10 = alloca i32, align 4
  %11 = alloca i32, align 4
  %12 = alloca ptr, align 8
  %13 = alloca i32, align 4
  store ptr %0, ptr %7, align 8, !tbaa !3
  store ptr %1, ptr %8, align 8, !tbaa !8
  store ptr %2, ptr %9, align 8, !tbaa !8
  store i32 %3, ptr %10, align 4, !tbaa !10
  store i32 %4, ptr %11, align 4, !tbaa !10
  call void @llvm.lifetime.start.p0(i64 8, ptr %12) #2
  %14 = load ptr, ptr %7, align 8, !tbaa !3
  %15 = icmp ne ptr %14, null
  br i1 %15, label %17, label %16

16:                                               ; preds = %5
  store ptr null, ptr %6, align 8
  store i32 1, ptr %13, align 4
  br label %90

17:                                               ; preds = %5
  %18 = load i32, ptr %10, align 4, !tbaa !10
  %19 = add nsw i32 %18, 1
  %20 = and i32 %19, -2
  store i32 %20, ptr %10, align 4, !tbaa !10
  %21 = load i32, ptr %10, align 4, !tbaa !10
  %22 = icmp slt i32 %21, 2
  br i1 %22, label %23, label %24

23:                                               ; preds = %17
  store ptr null, ptr %6, align 8
  store i32 1, ptr %13, align 4
  br label %90

24:                                               ; preds = %17
  %25 = load ptr, ptr %7, align 8, !tbaa !3
  %26 = getelementptr inbounds nuw %struct.mspack_system, ptr %25, i32 0, i32 7
  %27 = load ptr, ptr %26, align 8, !tbaa !12
  %28 = load ptr, ptr %7, align 8, !tbaa !3
  %29 = call ptr %27(ptr noundef %28, i64 noundef 35760)
  store ptr %29, ptr %12, align 8, !tbaa !14
  %30 = icmp ne ptr %29, null
  br i1 %30, label %32, label %31

31:                                               ; preds = %24
  store ptr null, ptr %6, align 8
  store i32 1, ptr %13, align 4
  br label %90

32:                                               ; preds = %24
  %33 = load ptr, ptr %7, align 8, !tbaa !3
  %34 = getelementptr inbounds nuw %struct.mspack_system, ptr %33, i32 0, i32 7
  %35 = load ptr, ptr %34, align 8, !tbaa !12
  %36 = load ptr, ptr %7, align 8, !tbaa !3
  %37 = load i32, ptr %10, align 4, !tbaa !10
  %38 = sext i32 %37 to i64
  %39 = call ptr %35(ptr noundef %36, i64 noundef %38)
  %40 = load ptr, ptr %12, align 8, !tbaa !14
  %41 = getelementptr inbounds nuw %struct.mszipd_stream, ptr %40, i32 0, i32 8
  store ptr %39, ptr %41, align 8, !tbaa !16
  %42 = load ptr, ptr %12, align 8, !tbaa !14
  %43 = getelementptr inbounds nuw %struct.mszipd_stream, ptr %42, i32 0, i32 8
  %44 = load ptr, ptr %43, align 8, !tbaa !16
  %45 = icmp ne ptr %44, null
  br i1 %45, label %51, label %46

46:                                               ; preds = %32
  %47 = load ptr, ptr %7, align 8, !tbaa !3
  %48 = getelementptr inbounds nuw %struct.mspack_system, ptr %47, i32 0, i32 8
  %49 = load ptr, ptr %48, align 8, !tbaa !19
  %50 = load ptr, ptr %12, align 8, !tbaa !14
  call void %49(ptr noundef %50)
  store ptr null, ptr %6, align 8
  store i32 1, ptr %13, align 4
  br label %90

51:                                               ; preds = %32
  %52 = load ptr, ptr %7, align 8, !tbaa !3
  %53 = load ptr, ptr %12, align 8, !tbaa !14
  %54 = getelementptr inbounds nuw %struct.mszipd_stream, ptr %53, i32 0, i32 0
  store ptr %52, ptr %54, align 8, !tbaa !20
  %55 = load ptr, ptr %8, align 8, !tbaa !8
  %56 = load ptr, ptr %12, align 8, !tbaa !14
  %57 = getelementptr inbounds nuw %struct.mszipd_stream, ptr %56, i32 0, i32 1
  store ptr %55, ptr %57, align 8, !tbaa !21
  %58 = load ptr, ptr %9, align 8, !tbaa !8
  %59 = load ptr, ptr %12, align 8, !tbaa !14
  %60 = getelementptr inbounds nuw %struct.mszipd_stream, ptr %59, i32 0, i32 2
  store ptr %58, ptr %60, align 8, !tbaa !22
  %61 = load i32, ptr %10, align 4, !tbaa !10
  %62 = load ptr, ptr %12, align 8, !tbaa !14
  %63 = getelementptr inbounds nuw %struct.mszipd_stream, ptr %62, i32 0, i32 16
  store i32 %61, ptr %63, align 4, !tbaa !23
  %64 = load ptr, ptr %12, align 8, !tbaa !14
  %65 = getelementptr inbounds nuw %struct.mszipd_stream, ptr %64, i32 0, i32 13
  store i8 0, ptr %65, align 8, !tbaa !24
  %66 = load ptr, ptr %12, align 8, !tbaa !14
  %67 = getelementptr inbounds nuw %struct.mszipd_stream, ptr %66, i32 0, i32 5
  store i32 0, ptr %67, align 8, !tbaa !25
  %68 = load i32, ptr %11, align 4, !tbaa !10
  %69 = load ptr, ptr %12, align 8, !tbaa !14
  %70 = getelementptr inbounds nuw %struct.mszipd_stream, ptr %69, i32 0, i32 6
  store i32 %68, ptr %70, align 4, !tbaa !26
  %71 = load ptr, ptr %12, align 8, !tbaa !14
  %72 = getelementptr inbounds nuw %struct.mszipd_stream, ptr %71, i32 0, i32 4
  store ptr @mszipd_flush_window, ptr %72, align 8, !tbaa !27
  %73 = load ptr, ptr %12, align 8, !tbaa !14
  %74 = getelementptr inbounds nuw %struct.mszipd_stream, ptr %73, i32 0, i32 8
  %75 = load ptr, ptr %74, align 8, !tbaa !16
  %76 = getelementptr inbounds i8, ptr %75, i64 0
  %77 = load ptr, ptr %12, align 8, !tbaa !14
  %78 = getelementptr inbounds nuw %struct.mszipd_stream, ptr %77, i32 0, i32 10
  store ptr %76, ptr %78, align 8, !tbaa !28
  %79 = load ptr, ptr %12, align 8, !tbaa !14
  %80 = getelementptr inbounds nuw %struct.mszipd_stream, ptr %79, i32 0, i32 9
  store ptr %76, ptr %80, align 8, !tbaa !29
  %81 = load ptr, ptr %12, align 8, !tbaa !14
  %82 = getelementptr inbounds nuw %struct.mszipd_stream, ptr %81, i32 0, i32 12
  store ptr null, ptr %82, align 8, !tbaa !30
  %83 = load ptr, ptr %12, align 8, !tbaa !14
  %84 = getelementptr inbounds nuw %struct.mszipd_stream, ptr %83, i32 0, i32 11
  store ptr null, ptr %84, align 8, !tbaa !31
  %85 = load ptr, ptr %12, align 8, !tbaa !14
  %86 = getelementptr inbounds nuw %struct.mszipd_stream, ptr %85, i32 0, i32 14
  store i32 0, ptr %86, align 4, !tbaa !32
  %87 = load ptr, ptr %12, align 8, !tbaa !14
  %88 = getelementptr inbounds nuw %struct.mszipd_stream, ptr %87, i32 0, i32 15
  store i32 0, ptr %88, align 8, !tbaa !33
  %89 = load ptr, ptr %12, align 8, !tbaa !14
  store ptr %89, ptr %6, align 8
  store i32 1, ptr %13, align 4
  br label %90

90:                                               ; preds = %51, %46, %31, %23, %16
  call void @llvm.lifetime.end.p0(i64 8, ptr %12) #2
  %91 = load ptr, ptr %6, align 8
  ret ptr %91
}