; Function Attrs: nounwind uwtable
define ptr @mszipd_init(ptr noundef %0, ptr noundef %1, ptr noundef %2, i32 noundef %3, i32 noundef %4) local_unnamed_addr #0 {
  %.not = icmp eq ptr %0, null
  br i1 %.not, label %35, label %6

6:                                                ; preds = %5
  %7 = add nsw i32 %3, 1
  %8 = and i32 %7, -2
  %9 = icmp slt i32 %3, 1
  br i1 %9, label %35, label %10

10:                                               ; preds = %6
  %11 = getelementptr inbounds nuw i8, ptr %0, i64 56
  %12 = load ptr, ptr %11, align 8, !tbaa !3
  %13 = tail call ptr %12(ptr noundef nonnull %0, i64 noundef 35760) #6
  %.not36 = icmp eq ptr %13, null
  br i1 %.not36, label %35, label %14

14:                                               ; preds = %10
  %15 = load ptr, ptr %11, align 8, !tbaa !3
  %16 = zext nneg i32 %8 to i64
  %17 = tail call ptr %15(ptr noundef nonnull %0, i64 noundef %16) #6
  %18 = getelementptr inbounds nuw i8, ptr %13, i64 56
  store ptr %17, ptr %18, align 8, !tbaa !8
  %.not37 = icmp eq ptr %17, null
  br i1 %.not37, label %19, label %22

19:                                               ; preds = %14
  %20 = getelementptr inbounds nuw i8, ptr %0, i64 64
  %21 = load ptr, ptr %20, align 8, !tbaa !14
  tail call void %21(ptr noundef nonnull %13) #6
  br label %35

22:                                               ; preds = %14
  store ptr %0, ptr %13, align 8, !tbaa !15
  %23 = getelementptr inbounds nuw i8, ptr %13, i64 8
  store ptr %1, ptr %23, align 8, !tbaa !16
  %24 = getelementptr inbounds nuw i8, ptr %13, i64 16
  store ptr %2, ptr %24, align 8, !tbaa !17
  %25 = getelementptr inbounds nuw i8, ptr %13, i64 108
  store i32 %8, ptr %25, align 4, !tbaa !18
  %26 = getelementptr inbounds nuw i8, ptr %13, i64 96
  store i8 0, ptr %26, align 8, !tbaa !19
  %27 = getelementptr inbounds nuw i8, ptr %13, i64 40
  store i32 0, ptr %27, align 8, !tbaa !20
  %28 = getelementptr inbounds nuw i8, ptr %13, i64 44
  store i32 %4, ptr %28, align 4, !tbaa !21
  %29 = getelementptr inbounds nuw i8, ptr %13, i64 32
  store ptr @mszipd_flush_window, ptr %29, align 8, !tbaa !22
  %30 = getelementptr inbounds nuw i8, ptr %13, i64 72
  store ptr %17, ptr %30, align 8, !tbaa !23
  %31 = getelementptr inbounds nuw i8, ptr %13, i64 64
  store ptr %17, ptr %31, align 8, !tbaa !24
  %32 = getelementptr inbounds nuw i8, ptr %13, i64 80
  %33 = getelementptr inbounds nuw i8, ptr %13, i64 100
  store i32 0, ptr %33, align 4, !tbaa !25
  %34 = getelementptr inbounds nuw i8, ptr %13, i64 104
  store i32 0, ptr %34, align 8, !tbaa !26
  tail call void @llvm.memset.p0.i64(ptr noundef nonnull align 8 dereferenceable(16) %32, i8 0, i64 16, i1 false)
  br label %35

35:                                               ; preds = %10, %6, %5, %22, %19
  %.0 = phi ptr [ %13, %22 ], [ null, %19 ], [ null, %5 ], [ null, %6 ], [ null, %10 ]
  ret ptr %.0
}